	.file	"main.cpp"
	.text
.Ltext0:
	.section	.text.startup,"ax",@progbits
	.p2align 4,,15
	.globl	main
	.type	main, @function
main:
.LFB2197:
	.file 1 "main.cpp"
	.loc 1 8 0
	.cfi_startproc
.LVL0:
	pushq	%rbp
	.cfi_def_cfa_offset 16
	.cfi_offset 6, -16
	movq	%rsp, %rbp
	.cfi_def_cfa_register 6
1:	call	*mcount@GOTPCREL(%rip)
	.loc 1 8 0
	.loc 1 10 0
	xorl	%eax, %eax
	popq	%rbp
	.cfi_def_cfa 7, 8
	ret
	.cfi_endproc
.LFE2197:
	.size	main, .-main
	.p2align 4,,15
	.type	_GLOBAL__sub_I_main, @function
_GLOBAL__sub_I_main:
.LFB2518:
	.loc 1 10 0
	.cfi_startproc
	pushq	%rbp
	.cfi_def_cfa_offset 16
	.cfi_offset 6, -16
	movq	%rsp, %rbp
	.cfi_def_cfa_register 6
1:	call	*mcount@GOTPCREL(%rip)
	.loc 1 10 0
.LVL1:
.LBB4:
.LBB5:
	.file 2 "/usr/include/c++/7/iostream"
	.loc 2 74 0
	leaq	_ZStL8__ioinit(%rip), %rdi
	call	_ZNSt8ios_base4InitC1Ev@PLT
.LVL2:
.LBE5:
.LBE4:
	.loc 1 10 0
	popq	%rbp
	.cfi_def_cfa 7, 8
.LBB7:
.LBB6:
	.loc 2 74 0
	movq	_ZNSt8ios_base4InitD1Ev@GOTPCREL(%rip), %rdi
	leaq	__dso_handle(%rip), %rdx
	leaq	_ZStL8__ioinit(%rip), %rsi
	jmp	__cxa_atexit@PLT
.LVL3:
.LBE6:
.LBE7:
	.cfi_endproc
.LFE2518:
	.size	_GLOBAL__sub_I_main, .-_GLOBAL__sub_I_main
	.section	.init_array,"aw"
	.align 8
	.quad	_GLOBAL__sub_I_main
	.local	_ZStL8__ioinit
	.comm	_ZStL8__ioinit,1,1
	.text
.Letext0:
	.file 3 "/usr/lib/gcc/x86_64-linux-gnu/7/include/stddef.h"
	.file 4 "/usr/include/x86_64-linux-gnu/bits/types.h"
	.file 5 "/usr/include/x86_64-linux-gnu/bits/types/__FILE.h"
	.file 6 "/usr/include/x86_64-linux-gnu/bits/libio.h"
	.file 7 "/usr/include/x86_64-linux-gnu/bits/types/FILE.h"
	.file 8 "/usr/include/x86_64-linux-gnu/bits/types/__mbstate_t.h"
	.file 9 "/usr/include/x86_64-linux-gnu/bits/_G_config.h"
	.file 10 "<built-in>"
	.file 11 "/usr/include/stdio.h"
	.file 12 "/usr/include/x86_64-linux-gnu/bits/sys_errlist.h"
	.file 13 "/usr/include/x86_64-linux-gnu/sys/time.h"
	.file 14 "/usr/include/c++/7/bits/exception_ptr.h"
	.file 15 "/usr/include/x86_64-linux-gnu/c++/7/bits/c++config.h"
	.file 16 "/usr/include/c++/7/type_traits"
	.file 17 "/usr/include/c++/7/new"
	.file 18 "/usr/include/c++/7/bits/stl_pair.h"
	.file 19 "/usr/include/c++/7/debug/debug.h"
	.file 20 "/usr/include/c++/7/cwchar"
	.file 21 "/usr/include/c++/7/bits/char_traits.h"
	.file 22 "/usr/include/c++/7/cstdint"
	.file 23 "/usr/include/c++/7/clocale"
	.file 24 "/usr/include/c++/7/cstdlib"
	.file 25 "/usr/include/c++/7/cstdio"
	.file 26 "/usr/include/c++/7/bits/uses_allocator.h"
	.file 27 "/usr/include/c++/7/tuple"
	.file 28 "/usr/include/c++/7/functional"
	.file 29 "/usr/include/c++/7/system_error"
	.file 30 "/usr/include/c++/7/bits/ios_base.h"
	.file 31 "/usr/include/c++/7/cwctype"
	.file 32 "/usr/include/c++/7/iosfwd"
	.file 33 "/usr/include/c++/7/bits/predefined_ops.h"
	.file 34 "/usr/include/c++/7/ext/new_allocator.h"
	.file 35 "/usr/include/c++/7/ext/numeric_traits.h"
	.file 36 "/usr/include/x86_64-linux-gnu/bits/types/wint_t.h"
	.file 37 "/usr/include/x86_64-linux-gnu/bits/types/mbstate_t.h"
	.file 38 "/usr/include/wchar.h"
	.file 39 "/usr/include/x86_64-linux-gnu/bits/wchar2.h"
	.file 40 "/usr/include/x86_64-linux-gnu/bits/types/struct_tm.h"
	.file 41 "/usr/include/x86_64-linux-gnu/bits/stdint-intn.h"
	.file 42 "/usr/include/x86_64-linux-gnu/bits/stdint-uintn.h"
	.file 43 "/usr/include/stdint.h"
	.file 44 "/usr/include/locale.h"
	.file 45 "/usr/include/time.h"
	.file 46 "/usr/include/x86_64-linux-gnu/c++/7/bits/atomic_word.h"
	.file 47 "/usr/include/stdlib.h"
	.file 48 "/usr/include/x86_64-linux-gnu/bits/stdlib-float.h"
	.file 49 "/usr/include/x86_64-linux-gnu/bits/stdlib-bsearch.h"
	.file 50 "/usr/include/x86_64-linux-gnu/bits/stdlib.h"
	.file 51 "/usr/include/x86_64-linux-gnu/bits/stdio2.h"
	.file 52 "/usr/include/x86_64-linux-gnu/bits/stdio.h"
	.file 53 "/usr/include/errno.h"
	.file 54 "/usr/include/x86_64-linux-gnu/bits/wctype-wchar.h"
	.file 55 "/usr/include/wctype.h"
	.section	.note.GNU-stack,"",@progbits
